target datalayout = "e-m:e-p270:32:32-p271:32:32-p272:64:64-i64:64-i128:128-f80:128-n8:16:32:64-S128"
target triple = "x86_64-pc-linux-gnu"

%struct.translation_st = type { i32, i32, i32, i32, i32, ptr, ptr, ptr, i32, ptr }

; Function Attrs: nounwind uwtable
define internal ptr @lookup_translation(ptr noundef %0, ptr noundef %1, i64 noundef %2) #0 {
  %4 = alloca ptr, align 8
  %5 = alloca ptr, align 8
  %6 = alloca ptr, align 8
  %7 = alloca i64, align 8
  %8 = alloca i64, align 8
  %9 = alloca ptr, align 8
  %10 = alloca i32, align 4
  %11 = alloca ptr, align 8
  %12 = alloca ptr, align 8
  store ptr %0, ptr %5, align 8, !tbaa !11
  store ptr %1, ptr %6, align 8, !tbaa !11
  store i64 %2, ptr %7, align 8, !tbaa !51
  call void @llvm.lifetime.start.p0(i64 8, ptr %8) #9
  store i64 0, ptr %8, align 8, !tbaa !51
  br label %13

13:                                               ; preds = %198, %3
  %14 = load i64, ptr %8, align 8, !tbaa !51
  %15 = load i64, ptr %7, align 8, !tbaa !51
  %16 = icmp ult i64 %14, %15
  br i1 %16, label %17, label %201

17:                                               ; preds = %13
  call void @llvm.lifetime.start.p0(i64 8, ptr %9) #9
  %18 = load ptr, ptr %6, align 8, !tbaa !11
  %19 = load i64, ptr %8, align 8, !tbaa !51
  %20 = getelementptr inbounds nuw %struct.translation_st, ptr %18, i64 %19
  store ptr %20, ptr %9, align 8, !tbaa !11
  %21 = load ptr, ptr %9, align 8, !tbaa !11
  %22 = getelementptr inbounds nuw %struct.translation_st, ptr %21, i32 0, i32 1
  %23 = load i32, ptr %22, align 4, !tbaa !28
  %24 = icmp eq i32 %23, -1
  %25 = zext i1 %24 to i32
  %26 = load ptr, ptr %9, align 8, !tbaa !11
  %27 = getelementptr inbounds nuw %struct.translation_st, ptr %26, i32 0, i32 2
  %28 = load i32, ptr %27, align 8, !tbaa !27
  %29 = icmp eq i32 %28, -1
  %30 = zext i1 %29 to i32
  %31 = icmp eq i32 %25, %30
  %32 = zext i1 %31 to i32
  %33 = icmp ne i32 %32, 0
  %34 = xor i1 %33, true
  %35 = xor i1 %34, true
  %36 = zext i1 %35 to i32
  %37 = sext i32 %36 to i64
  %38 = call i64 @llvm.expect.i64(i64 %37, i64 1)
  %39 = icmp ne i64 %38, 0
  br i1 %39, label %41, label %40

40:                                               ; preds = %17
  store i32 4, ptr %10, align 4
  br label %196

41:                                               ; preds = %17
  %42 = load ptr, ptr %9, align 8, !tbaa !11
  %43 = getelementptr inbounds nuw %struct.translation_st, ptr %42, i32 0, i32 3
  %44 = load i32, ptr %43, align 4, !tbaa !29
  %45 = icmp ne i32 %44, -1
  br i1 %45, label %46, label %56

46:                                               ; preds = %41
  %47 = load ptr, ptr %5, align 8, !tbaa !11
  %48 = getelementptr inbounds nuw %struct.translation_st, ptr %47, i32 0, i32 3
  %49 = load i32, ptr %48, align 4, !tbaa !29
  %50 = load ptr, ptr %9, align 8, !tbaa !11
  %51 = getelementptr inbounds nuw %struct.translation_st, ptr %50, i32 0, i32 3
  %52 = load i32, ptr %51, align 4, !tbaa !29
  %53 = and i32 %49, %52
  %54 = icmp eq i32 %53, 0
  br i1 %54, label %55, label %56

55:                                               ; preds = %46
  store i32 4, ptr %10, align 4
  br label %196

56:                                               ; preds = %46, %41
  %57 = load ptr, ptr %9, align 8, !tbaa !11
  %58 = getelementptr inbounds nuw %struct.translation_st, ptr %57, i32 0, i32 1
  %59 = load i32, ptr %58, align 4, !tbaa !28
  %60 = icmp ne i32 %59, -1
  br i1 %60, label %61, label %78

61:                                               ; preds = %56
  %62 = load ptr, ptr %5, align 8, !tbaa !11
  %63 = getelementptr inbounds nuw %struct.translation_st, ptr %62, i32 0, i32 1
  %64 = load i32, ptr %63, align 4, !tbaa !28
  %65 = load ptr, ptr %9, align 8, !tbaa !11
  %66 = getelementptr inbounds nuw %struct.translation_st, ptr %65, i32 0, i32 1
  %67 = load i32, ptr %66, align 4, !tbaa !28
  %68 = icmp ne i32 %64, %67
  br i1 %68, label %69, label %78

69:                                               ; preds = %61
  %70 = load ptr, ptr %5, align 8, !tbaa !11
  %71 = getelementptr inbounds nuw %struct.translation_st, ptr %70, i32 0, i32 2
  %72 = load i32, ptr %71, align 8, !tbaa !27
  %73 = load ptr, ptr %9, align 8, !tbaa !11
  %74 = getelementptr inbounds nuw %struct.translation_st, ptr %73, i32 0, i32 2
  %75 = load i32, ptr %74, align 8, !tbaa !27
  %76 = icmp ne i32 %72, %75
  br i1 %76, label %77, label %78

77:                                               ; preds = %69
  store i32 4, ptr %10, align 4
  br label %196

78:                                               ; preds = %69, %61, %56
  %79 = load ptr, ptr %5, align 8, !tbaa !11
  %80 = getelementptr inbounds nuw %struct.translation_st, ptr %79, i32 0, i32 4
  %81 = load i32, ptr %80, align 8, !tbaa !25
  %82 = icmp ne i32 %81, 0
  br i1 %82, label %83, label %93

83:                                               ; preds = %78
  %84 = load ptr, ptr %5, align 8, !tbaa !11
  %85 = getelementptr inbounds nuw %struct.translation_st, ptr %84, i32 0, i32 4
  %86 = load i32, ptr %85, align 8, !tbaa !25
  %87 = load ptr, ptr %9, align 8, !tbaa !11
  %88 = getelementptr inbounds nuw %struct.translation_st, ptr %87, i32 0, i32 4
  %89 = load i32, ptr %88, align 8, !tbaa !25
  %90 = icmp ne i32 %86, %89
  br i1 %90, label %91, label %92

91:                                               ; preds = %83
  store i32 4, ptr %10, align 4
  br label %196

92:                                               ; preds = %83
  br label %194

93:                                               ; preds = %78
  %94 = load ptr, ptr %5, align 8, !tbaa !11
  %95 = getelementptr inbounds nuw %struct.translation_st, ptr %94, i32 0, i32 5
  %96 = load ptr, ptr %95, align 8, !tbaa !63
  %97 = icmp ne ptr %96, null
  br i1 %97, label %98, label %157

98:                                               ; preds = %93
  call void @llvm.lifetime.start.p0(i64 8, ptr %11) #9
  store ptr null, ptr %11, align 8, !tbaa !50
  call void @llvm.lifetime.start.p0(i64 8, ptr %12) #9
  store ptr null, ptr %12, align 8, !tbaa !50
  %99 = load ptr, ptr %9, align 8, !tbaa !11
  %100 = getelementptr inbounds nuw %struct.translation_st, ptr %99, i32 0, i32 0
  %101 = load i32, ptr %100, align 8, !tbaa !34
  %102 = icmp ne i32 %101, 0
  br i1 %102, label %103, label %109

103:                                              ; preds = %98
  %104 = load ptr, ptr %9, align 8, !tbaa !11
  %105 = getelementptr inbounds nuw %struct.translation_st, ptr %104, i32 0, i32 0
  %106 = load i32, ptr %105, align 8, !tbaa !34
  %107 = icmp ne i32 %106, 2
  br i1 %107, label %108, label %109

108:                                              ; preds = %103
  store i32 4, ptr %10, align 4
  br label %154

109:                                              ; preds = %103, %98
  %110 = load ptr, ptr %9, align 8, !tbaa !11
  %111 = getelementptr inbounds nuw %struct.translation_st, ptr %110, i32 0, i32 5
  %112 = load ptr, ptr %111, align 8, !tbaa !63
  %113 = icmp ne ptr %112, null
  br i1 %113, label %114, label %127

114:                                              ; preds = %109
  %115 = load ptr, ptr %5, align 8, !tbaa !11
  %116 = getelementptr inbounds nuw %struct.translation_st, ptr %115, i32 0, i32 5
  %117 = load ptr, ptr %116, align 8, !tbaa !63
  %118 = load ptr, ptr %9, align 8, !tbaa !11
  %119 = getelementptr inbounds nuw %struct.translation_st, ptr %118, i32 0, i32 5
  %120 = load ptr, ptr %119, align 8, !tbaa !63
  %121 = call i32 @OPENSSL_strcasecmp(ptr noundef %117, ptr noundef %120)
  %122 = icmp eq i32 %121, 0
  br i1 %122, label %123, label %127

123:                                              ; preds = %114
  %124 = load ptr, ptr %5, align 8, !tbaa !11
  %125 = getelementptr inbounds nuw %struct.translation_st, ptr %124, i32 0, i32 5
  %126 = load ptr, ptr %125, align 8, !tbaa !63
  store ptr %126, ptr %11, align 8, !tbaa !50
  br label %147

127:                                              ; preds = %114, %109
  %128 = load ptr, ptr %9, align 8, !tbaa !11
  %129 = getelementptr inbounds nuw %struct.translation_st, ptr %128, i32 0, i32 6
  %130 = load ptr, ptr %129, align 8, !tbaa !64
  %131 = icmp ne ptr %130, null
  br i1 %131, label %132, label %145

132:                                              ; preds = %127
  %133 = load ptr, ptr %5, align 8, !tbaa !11
  %134 = getelementptr inbounds nuw %struct.translation_st, ptr %133, i32 0, i32 6
  %135 = load ptr, ptr %134, align 8, !tbaa !64
  %136 = load ptr, ptr %9, align 8, !tbaa !11
  %137 = getelementptr inbounds nuw %struct.translation_st, ptr %136, i32 0, i32 6
  %138 = load ptr, ptr %137, align 8, !tbaa !64
  %139 = call i32 @OPENSSL_strcasecmp(ptr noundef %135, ptr noundef %138)
  %140 = icmp eq i32 %139, 0
  br i1 %140, label %141, label %145

141:                                              ; preds = %132
  %142 = load ptr, ptr %5, align 8, !tbaa !11
  %143 = getelementptr inbounds nuw %struct.translation_st, ptr %142, i32 0, i32 6
  %144 = load ptr, ptr %143, align 8, !tbaa !64
  store ptr %144, ptr %12, align 8, !tbaa !50
  br label %146

145:                                              ; preds = %132, %127
  store i32 4, ptr %10, align 4
  br label %154

146:                                              ; preds = %141
  br label %147

147:                                              ; preds = %146, %123
  %148 = load ptr, ptr %11, align 8, !tbaa !50
  %149 = load ptr, ptr %5, align 8, !tbaa !11
  %150 = getelementptr inbounds nuw %struct.translation_st, ptr %149, i32 0, i32 5
  store ptr %148, ptr %150, align 8, !tbaa !63
  %151 = load ptr, ptr %12, align 8, !tbaa !50
  %152 = load ptr, ptr %5, align 8, !tbaa !11
  %153 = getelementptr inbounds nuw %struct.translation_st, ptr %152, i32 0, i32 6
  store ptr %151, ptr %153, align 8, !tbaa !64
  store i32 0, ptr %10, align 4
  br label %154

154:                                              ; preds = %147, %145, %108
  call void @llvm.lifetime.end.p0(i64 8, ptr %12) #9
  call void @llvm.lifetime.end.p0(i64 8, ptr %11) #9
  %155 = load i32, ptr %10, align 4
  switch i32 %155, label %196 [
    i32 0, label %156
  ]

156:                                              ; preds = %154
  br label %193

157:                                              ; preds = %93
  %158 = load ptr, ptr %5, align 8, !tbaa !11
  %159 = getelementptr inbounds nuw %struct.translation_st, ptr %158, i32 0, i32 7
  %160 = load ptr, ptr %159, align 8, !tbaa !48
  %161 = icmp ne ptr %160, null
  br i1 %161, label %162, label %191

162:                                              ; preds = %157
  %163 = load ptr, ptr %9, align 8, !tbaa !11
  %164 = getelementptr inbounds nuw %struct.translation_st, ptr %163, i32 0, i32 0
  %165 = load i32, ptr %164, align 8, !tbaa !34
  %166 = icmp ne i32 %165, 0
  br i1 %166, label %167, label %175

167:                                              ; preds = %162
  %168 = load ptr, ptr %5, align 8, !tbaa !11
  %169 = getelementptr inbounds nuw %struct.translation_st, ptr %168, i32 0, i32 0
  %170 = load i32, ptr %169, align 8, !tbaa !34
  %171 = load ptr, ptr %9, align 8, !tbaa !11
  %172 = getelementptr inbounds nuw %struct.translation_st, ptr %171, i32 0, i32 0
  %173 = load i32, ptr %172, align 8, !tbaa !34
  %174 = icmp ne i32 %170, %173
  br i1 %174, label %189, label %175

175:                                              ; preds = %167, %162
  %176 = load ptr, ptr %9, align 8, !tbaa !11
  %177 = getelementptr inbounds nuw %struct.translation_st, ptr %176, i32 0, i32 7
  %178 = load ptr, ptr %177, align 8, !tbaa !48
  %179 = icmp ne ptr %178, null
  br i1 %179, label %180, label %190

180:                                              ; preds = %175
  %181 = load ptr, ptr %5, align 8, !tbaa !11
  %182 = getelementptr inbounds nuw %struct.translation_st, ptr %181, i32 0, i32 7
  %183 = load ptr, ptr %182, align 8, !tbaa !48
  %184 = load ptr, ptr %9, align 8, !tbaa !11
  %185 = getelementptr inbounds nuw %struct.translation_st, ptr %184, i32 0, i32 7
  %186 = load ptr, ptr %185, align 8, !tbaa !48
  %187 = call i32 @OPENSSL_strcasecmp(ptr noundef %183, ptr noundef %186)
  %188 = icmp ne i32 %187, 0
  br i1 %188, label %189, label %190

189:                                              ; preds = %180, %167
  store i32 4, ptr %10, align 4
  br label %196

190:                                              ; preds = %180, %175
  br label %192

191:                                              ; preds = %157
  store ptr null, ptr %4, align 8
  store i32 1, ptr %10, align 4
  br label %196

192:                                              ; preds = %190
  br label %193

193:                                              ; preds = %192, %156
  br label %194

194:                                              ; preds = %193, %92
  %195 = load ptr, ptr %9, align 8, !tbaa !11
  store ptr %195, ptr %4, align 8
  store i32 1, ptr %10, align 4
  br label %196

196:                                              ; preds = %194, %191, %189, %154, %91, %77, %55, %40
  call void @llvm.lifetime.end.p0(i64 8, ptr %9) #9
  %197 = load i32, ptr %10, align 4
  switch i32 %197, label %202 [
    i32 4, label %198
  ]

198:                                              ; preds = %196
  %199 = load i64, ptr %8, align 8, !tbaa !51
  %200 = add i64 %199, 1
  store i64 %200, ptr %8, align 8, !tbaa !51
  br label %13, !llvm.loop !70

201:                                              ; preds = %13
  store ptr null, ptr %4, align 8
  store i32 1, ptr %10, align 4
  br label %202

202:                                              ; preds = %201, %196
  call void @llvm.lifetime.end.p0(i64 8, ptr %8) #9
  %203 = load ptr, ptr %4, align 8
  ret ptr %203
}