; Function Attrs: nounwind uwtable
define internal fastcc ptr @lookup_translation(ptr noundef nonnull captures(none) %0, ptr noundef readonly captures(ret: address, provenance) %1, i64 noundef range(i64 41, 87) %2) unnamed_addr #0 {
  %4 = getelementptr inbounds nuw i8, ptr %0, i64 12
  %5 = getelementptr inbounds nuw i8, ptr %0, i64 4
  %6 = getelementptr inbounds nuw i8, ptr %0, i64 8
  %7 = getelementptr inbounds nuw i8, ptr %0, i64 16
  %8 = getelementptr inbounds nuw i8, ptr %0, i64 24
  %9 = getelementptr inbounds nuw i8, ptr %0, i64 32
  %10 = getelementptr inbounds nuw i8, ptr %0, i64 40
  br label %11

11:                                               ; preds = %3, %.thread
  %.04884 = phi i64 [ 0, %3 ], [ %70, %.thread ]
  %12 = getelementptr inbounds nuw %struct.translation_st, ptr %1, i64 %.04884
  %13 = getelementptr inbounds nuw i8, ptr %12, i64 4
  %14 = load i32, ptr %13, align 4, !tbaa !22
  %15 = icmp eq i32 %14, -1
  %16 = getelementptr inbounds nuw i8, ptr %12, i64 8
  %17 = load i32, ptr %16, align 8, !tbaa !21
  %18 = icmp ne i32 %17, -1
  %19 = xor i1 %15, %18
  br i1 %19, label %20, label %.thread, !prof !62

20:                                               ; preds = %11
  %21 = getelementptr inbounds nuw i8, ptr %12, i64 12
  %22 = load i32, ptr %21, align 4, !tbaa !23
  %.not = icmp eq i32 %22, -1
  br i1 %.not, label %27, label %23

23:                                               ; preds = %20
  %24 = load i32, ptr %4, align 4, !tbaa !23
  %25 = and i32 %24, %22
  %26 = icmp eq i32 %25, 0
  br i1 %26, label %.thread, label %27

27:                                               ; preds = %23, %20
  br i1 %15, label %32, label %28

28:                                               ; preds = %27
  %29 = load i32, ptr %5, align 4, !tbaa !22
  %.not58 = icmp eq i32 %29, %14
  br i1 %.not58, label %32, label %30

30:                                               ; preds = %28
  %31 = load i32, ptr %6, align 8, !tbaa !21
  %.not59 = icmp eq i32 %31, %17
  br i1 %.not59, label %32, label %.thread

32:                                               ; preds = %30, %28, %27
  %33 = load i32, ptr %7, align 8, !tbaa !19
  %.not60 = icmp eq i32 %33, 0
  br i1 %.not60, label %37, label %34

34:                                               ; preds = %32
  %35 = getelementptr inbounds nuw i8, ptr %12, i64 16
  %36 = load i32, ptr %35, align 8, !tbaa !19
  %.not71 = icmp eq i32 %33, %36
  br i1 %.not71, label %.loopexit, label %.thread

37:                                               ; preds = %32
  %38 = load ptr, ptr %8, align 8, !tbaa !58
  %.not61 = icmp eq ptr %38, null
  br i1 %.not61, label %59, label %39

39:                                               ; preds = %37
  %40 = load i32, ptr %12, align 8, !tbaa !28
  switch i32 %40, label %.thread [
    i32 0, label %41
    i32 2, label %41
  ]

41:                                               ; preds = %39, %39
  %42 = getelementptr inbounds nuw i8, ptr %12, i64 24
  %43 = load ptr, ptr %42, align 8, !tbaa !58
  %.not69 = icmp eq ptr %43, null
  br i1 %.not69, label %49, label %44

44:                                               ; preds = %41
  %45 = tail call i32 @OPENSSL_strcasecmp(ptr noundef nonnull %38, ptr noundef nonnull %43) #8
  %46 = icmp eq i32 %45, 0
  br i1 %46, label %47, label %49

47:                                               ; preds = %44
  %48 = load ptr, ptr %8, align 8, !tbaa !58
  br label %58

49:                                               ; preds = %44, %41
  %50 = getelementptr inbounds nuw i8, ptr %12, i64 32
  %51 = load ptr, ptr %50, align 8, !tbaa !59
  %.not70 = icmp eq ptr %51, null
  br i1 %.not70, label %.thread, label %52

52:                                               ; preds = %49
  %53 = load ptr, ptr %9, align 8, !tbaa !59
  %54 = tail call i32 @OPENSSL_strcasecmp(ptr noundef %53, ptr noundef nonnull %51) #8
  %55 = icmp eq i32 %54, 0
  br i1 %55, label %56, label %.thread

56:                                               ; preds = %52
  %57 = load ptr, ptr %9, align 8, !tbaa !59
  br label %58

58:                                               ; preds = %47, %56
  %.044 = phi ptr [ %48, %47 ], [ null, %56 ]
  %.0 = phi ptr [ null, %47 ], [ %57, %56 ]
  store ptr %.044, ptr %8, align 8, !tbaa !58
  store ptr %.0, ptr %9, align 8, !tbaa !59
  br label %.loopexit

59:                                               ; preds = %37
  %60 = load ptr, ptr %10, align 8, !tbaa !42
  %.not62 = icmp eq ptr %60, null
  br i1 %.not62, label %.loopexit, label %61

61:                                               ; preds = %59
  %62 = load i32, ptr %12, align 8, !tbaa !28
  %.not63 = icmp eq i32 %62, 0
  br i1 %.not63, label %65, label %63

63:                                               ; preds = %61
  %64 = load i32, ptr %0, align 8, !tbaa !28
  %.not64 = icmp eq i32 %64, %62
  br i1 %.not64, label %65, label %.thread

65:                                               ; preds = %63, %61
  %66 = getelementptr inbounds nuw i8, ptr %12, i64 40
  %67 = load ptr, ptr %66, align 8, !tbaa !42
  %.not65 = icmp eq ptr %67, null
  br i1 %.not65, label %.loopexit, label %68

68:                                               ; preds = %65
  %69 = tail call i32 @OPENSSL_strcasecmp(ptr noundef nonnull %60, ptr noundef nonnull %67) #8
  %.not66 = icmp eq i32 %69, 0
  br i1 %.not66, label %.loopexit, label %.thread

.thread:                                          ; preds = %49, %52, %39, %11, %23, %30, %34, %68, %63
  %70 = add nuw nsw i64 %.04884, 1
  %exitcond.not = icmp eq i64 %70, %2
  br i1 %exitcond.not, label %.loopexit, label %11, !llvm.loop !63

.loopexit:                                        ; preds = %34, %68, %65, %59, %.thread, %58
  %.2 = phi ptr [ %12, %58 ], [ %12, %34 ], [ %12, %68 ], [ %12, %65 ], [ null, %59 ], [ null, %.thread ]
  ret ptr %.2
}